target datalayout = "e-m:e-p270:32:32-p271:32:32-p272:64:64-i64:64-i128:128-f80:128-n8:16:32:64-S128"
target triple = "x86_64-pc-linux-gnu"

%struct.conversation = type { ptr, ptr, ptr, i32, i32, i32, ptr, ptr, i32, ptr }
%struct._tftp_conv_info_t = type { i16, ptr, ptr, i32, i8, i8, i16, i16, i32, i8, i32, i8, i32, ptr, i32, i32, i8 }

@proto_tftp = internal global i32 0, align 4

; Function Attrs: null_pointer_is_valid sspstrong uwtable
define internal ptr @tftp_info_for_conversation(ptr noundef %0) #0 {
  %2 = alloca ptr, align 8
  %3 = alloca ptr, align 8
  store ptr %0, ptr %2, align 8
  call void @llvm.lifetime.start.p0(i64 8, ptr %3) #12
  %4 = load ptr, ptr %2, align 8
  %5 = load i32, ptr @proto_tftp, align 4
  %6 = call ptr @conversation_get_proto_data(ptr noundef %4, i32 noundef %5)
  store ptr %6, ptr %3, align 8
  %7 = load ptr, ptr %3, align 8
  %8 = icmp ne ptr %7, null
  br i1 %8, label %52, label %9

9:                                                ; preds = %1
  %10 = call ptr @wmem_file_scope()
  %11 = call noalias ptr @wmem_alloc(ptr noundef %10, i64 noundef 80) #16
  store ptr %11, ptr %3, align 8
  %12 = load ptr, ptr %3, align 8
  %13 = getelementptr inbounds nuw %struct._tftp_conv_info_t, ptr %12, i32 0, i32 0
  store i16 512, ptr %13, align 8
  %14 = load ptr, ptr %3, align 8
  %15 = getelementptr inbounds nuw %struct._tftp_conv_info_t, ptr %14, i32 0, i32 1
  store ptr null, ptr %15, align 8
  %16 = load ptr, ptr %3, align 8
  %17 = getelementptr inbounds nuw %struct._tftp_conv_info_t, ptr %16, i32 0, i32 2
  store ptr null, ptr %17, align 8
  %18 = load ptr, ptr %3, align 8
  %19 = getelementptr inbounds nuw %struct._tftp_conv_info_t, ptr %18, i32 0, i32 3
  store i32 0, ptr %19, align 8
  %20 = load ptr, ptr %3, align 8
  %21 = getelementptr inbounds nuw %struct._tftp_conv_info_t, ptr %20, i32 0, i32 4
  store i8 0, ptr %21, align 4
  %22 = load ptr, ptr %3, align 8
  %23 = getelementptr inbounds nuw %struct._tftp_conv_info_t, ptr %22, i32 0, i32 5
  store i8 0, ptr %23, align 1
  %24 = load ptr, ptr %3, align 8
  %25 = getelementptr inbounds nuw %struct._tftp_conv_info_t, ptr %24, i32 0, i32 6
  store i16 0, ptr %25, align 2
  %26 = load ptr, ptr %3, align 8
  %27 = getelementptr inbounds nuw %struct._tftp_conv_info_t, ptr %26, i32 0, i32 7
  store i16 -1, ptr %27, align 8
  %28 = load ptr, ptr %3, align 8
  %29 = getelementptr inbounds nuw %struct._tftp_conv_info_t, ptr %28, i32 0, i32 8
  store i32 1, ptr %29, align 4
  %30 = load ptr, ptr %3, align 8
  %31 = getelementptr inbounds nuw %struct._tftp_conv_info_t, ptr %30, i32 0, i32 9
  store i8 0, ptr %31, align 8
  %32 = load ptr, ptr %3, align 8
  %33 = getelementptr inbounds nuw %struct._tftp_conv_info_t, ptr %32, i32 0, i32 10
  store i32 0, ptr %33, align 4
  %34 = load ptr, ptr %3, align 8
  %35 = getelementptr inbounds nuw %struct._tftp_conv_info_t, ptr %34, i32 0, i32 11
  store i8 0, ptr %35, align 8
  %36 = load ptr, ptr %3, align 8
  %37 = getelementptr inbounds nuw %struct._tftp_conv_info_t, ptr %36, i32 0, i32 12
  store i32 1, ptr %37, align 4
  %38 = load ptr, ptr %3, align 8
  %39 = getelementptr inbounds nuw %struct._tftp_conv_info_t, ptr %38, i32 0, i32 13
  store ptr null, ptr %39, align 8
  %40 = load ptr, ptr %2, align 8
  %41 = getelementptr inbounds nuw %struct.conversation, ptr %40, i32 0, i32 3
  %42 = load i32, ptr %41, align 8
  %43 = load ptr, ptr %3, align 8
  %44 = getelementptr inbounds nuw %struct._tftp_conv_info_t, ptr %43, i32 0, i32 14
  store i32 %42, ptr %44, align 8
  %45 = load ptr, ptr %3, align 8
  %46 = getelementptr inbounds nuw %struct._tftp_conv_info_t, ptr %45, i32 0, i32 15
  store i32 -1, ptr %46, align 4
  %47 = load ptr, ptr %3, align 8
  %48 = getelementptr inbounds nuw %struct._tftp_conv_info_t, ptr %47, i32 0, i32 16
  store i8 1, ptr %48, align 8
  %49 = load ptr, ptr %2, align 8
  %50 = load i32, ptr @proto_tftp, align 4
  %51 = load ptr, ptr %3, align 8
  call void @conversation_add_proto_data(ptr noundef %49, i32 noundef %50, ptr noundef %51)
  br label %52

52:                                               ; preds = %9, %1
  %53 = load ptr, ptr %3, align 8
  call void @llvm.lifetime.end.p0(i64 8, ptr %3) #12
  ret ptr %53
}

; Function Attrs: null_pointer_is_valid sspstrong uwtable
define internal zeroext i1 @dissect_embeddedtftp_heur(ptr noundef %0, ptr noundef %1, ptr noundef %2, ptr noundef %3) #0 {
  %5 = alloca i1, align 1
  %6 = alloca ptr, align 8
  %7 = alloca ptr, align 8
  %8 = alloca ptr, align 8
  %9 = alloca ptr, align 8
  %10 = alloca ptr, align 8
  %11 = alloca i16, align 2
  %12 = alloca i32, align 4
  store ptr %0, ptr %6, align 8
  store ptr %1, ptr %7, align 8
  store ptr %2, ptr %8, align 8
  store ptr %3, ptr %9, align 8
  call void @llvm.lifetime.start.p0(i64 8, ptr %10) #12
  call void @llvm.lifetime.start.p0(i64 2, ptr %11) #12
  %13 = load ptr, ptr %6, align 8
  %14 = call i32 @tvb_captured_length(ptr noundef %13)
  %15 = icmp ult i32 %14, 4
  br i1 %15, label %16, label %17

16:                                               ; preds = %4
  store i1 false, ptr %5, align 1
  store i32 1, ptr %12, align 4
  br label %45

17:                                               ; preds = %4
  %18 = load ptr, ptr %6, align 8
  %19 = call zeroext i16 @tvb_get_ntohs(ptr noundef %18, i32 noundef 0)
  store i16 %19, ptr %11, align 2
  %20 = load i16, ptr %11, align 2
  %21 = zext i16 %20 to i32
  switch i32 %21, label %36 [
    i32 1, label %22
    i32 2, label %22
    i32 3, label %28
    i32 4, label %28
    i32 6, label %28
    i32 255, label %28
    i32 5, label %29
  ]

22:                                               ; preds = %17, %17
  %23 = load ptr, ptr %6, align 8
  %24 = load ptr, ptr %7, align 8
  %25 = call zeroext i1 @is_valid_request_body(ptr noundef %23, ptr noundef %24)
  br i1 %25, label %27, label %26

26:                                               ; preds = %22
  store i1 false, ptr %5, align 1
  store i32 1, ptr %12, align 4
  br label %45

27:                                               ; preds = %22
  br label %28

28:                                               ; preds = %17, %17, %17, %17, %27
  br label %37

29:                                               ; preds = %17
  %30 = load ptr, ptr %6, align 8
  %31 = call zeroext i16 @tvb_get_ntohs(ptr noundef %30, i32 noundef 2)
  %32 = zext i16 %31 to i32
  switch i32 %32, label %34 [
    i32 0, label %33
    i32 1, label %33
    i32 2, label %33
    i32 3, label %33
    i32 4, label %33
    i32 5, label %33
    i32 6, label %33
    i32 7, label %33
    i32 8, label %33
  ]

33:                                               ; preds = %29, %29, %29, %29, %29, %29, %29, %29, %29
  br label %35

34:                                               ; preds = %29
  store i1 false, ptr %5, align 1
  store i32 1, ptr %12, align 4
  br label %45

35:                                               ; preds = %33
  br label %37

36:                                               ; preds = %17
  store i1 false, ptr %5, align 1
  store i32 1, ptr %12, align 4
  br label %45

37:                                               ; preds = %35, %28
  %38 = load ptr, ptr %7, align 8
  %39 = call ptr @find_or_create_conversation(ptr noundef %38)
  store ptr %39, ptr %10, align 8
  %40 = load ptr, ptr %10, align 8
  %41 = call ptr @tftp_info_for_conversation(ptr noundef %40)
  %42 = load ptr, ptr %6, align 8
  %43 = load ptr, ptr %7, align 8
  %44 = load ptr, ptr %8, align 8
  call void @dissect_tftp_message(ptr noundef %41, ptr noundef %42, ptr noundef %43, ptr noundef %44)
  store i1 true, ptr %5, align 1
  store i32 1, ptr %12, align 4
  br label %45

45:                                               ; preds = %37, %36, %34, %26, %16
  call void @llvm.lifetime.end.p0(i64 2, ptr %11) #12
  call void @llvm.lifetime.end.p0(i64 8, ptr %10) #12
  %46 = load i1, ptr %5, align 1
  ret i1 %46
}