; Function Attrs: null_pointer_is_valid sspstrong uwtable
define internal noundef zeroext i1 @dissect_embeddedtftp_heur(ptr noundef %0, ptr noundef %1, ptr noundef %2, ptr readnone captures(none) %3) #0 {
  %5 = tail call i32 @tvb_captured_length(ptr noundef %0)
  %6 = icmp ult i32 %5, 4
  br i1 %6, label %34, label %7

7:                                                ; preds = %4
  %8 = tail call zeroext i16 @tvb_get_ntohs(ptr noundef %0, i32 noundef 0)
  switch i16 %8, label %34 [
    i16 1, label %9
    i16 2, label %9
    i16 3, label %13
    i16 4, label %13
    i16 6, label %13
    i16 255, label %13
    i16 5, label %11
  ]

9:                                                ; preds = %7, %7
  %10 = tail call fastcc zeroext i1 @is_valid_request_body(ptr noundef %0, ptr noundef %1)
  br i1 %10, label %13, label %34

11:                                               ; preds = %7
  %12 = tail call zeroext i16 @tvb_get_ntohs(ptr noundef %0, i32 noundef 2)
  %switch = icmp ult i16 %12, 9
  br i1 %switch, label %13, label %34

13:                                               ; preds = %11, %7, %7, %7, %7, %9
  %14 = tail call ptr @find_or_create_conversation(ptr noundef %1)
  %15 = load i32, ptr @proto_tftp, align 4
  %16 = tail call ptr @conversation_get_proto_data(ptr noundef %14, i32 noundef %15)
  %.not.i = icmp eq ptr %16, null
  br i1 %.not.i, label %17, label %tftp_info_for_conversation.exit

17:                                               ; preds = %13
  %18 = tail call ptr @wmem_file_scope()
  %19 = tail call noalias dereferenceable_or_null(80) ptr @wmem_alloc(ptr noundef %18, i64 noundef 80) #8
  store i16 512, ptr %19, align 8
  %20 = getelementptr inbounds nuw i8, ptr %19, i64 8
  %21 = getelementptr inbounds nuw i8, ptr %19, i64 32
  tail call void @llvm.memset.p0.i64(ptr noundef nonnull align 8 dereferenceable(24) %20, i8 0, i64 24, i1 false)
  store i16 -1, ptr %21, align 8
  %22 = getelementptr inbounds nuw i8, ptr %19, i64 36
  store i32 1, ptr %22, align 4
  %23 = getelementptr inbounds nuw i8, ptr %19, i64 40
  store i8 0, ptr %23, align 8
  %24 = getelementptr inbounds nuw i8, ptr %19, i64 44
  store i32 0, ptr %24, align 4
  %25 = getelementptr inbounds nuw i8, ptr %19, i64 48
  store i8 0, ptr %25, align 8
  %26 = getelementptr inbounds nuw i8, ptr %19, i64 52
  store i32 1, ptr %26, align 4
  %27 = getelementptr inbounds nuw i8, ptr %19, i64 56
  store ptr null, ptr %27, align 8
  %28 = getelementptr inbounds nuw i8, ptr %14, i64 24
  %29 = load i32, ptr %28, align 8
  %30 = getelementptr inbounds nuw i8, ptr %19, i64 64
  store i32 %29, ptr %30, align 8
  %31 = getelementptr inbounds nuw i8, ptr %19, i64 68
  store i32 -1, ptr %31, align 4
  %32 = getelementptr inbounds nuw i8, ptr %19, i64 72
  store i8 1, ptr %32, align 8
  %33 = load i32, ptr @proto_tftp, align 4
  tail call void @conversation_add_proto_data(ptr noundef %14, i32 noundef %33, ptr noundef %19)
  br label %tftp_info_for_conversation.exit

tftp_info_for_conversation.exit:                  ; preds = %13, %17
  %.0.i = phi ptr [ %16, %13 ], [ %19, %17 ]
  tail call fastcc void @dissect_tftp_message(ptr noundef %.0.i, ptr noundef %0, ptr noundef %1, ptr noundef %2)
  br label %34

34:                                               ; preds = %7, %11, %9, %4, %tftp_info_for_conversation.exit
  %.0 = phi i1 [ true, %tftp_info_for_conversation.exit ], [ false, %4 ], [ false, %9 ], [ false, %11 ], [ false, %7 ]
  ret i1 %.0
}